target datalayout = "e-m:e-p270:32:32-p271:32:32-p272:64:64-i64:64-i128:128-f80:128-n8:16:32:64-S128"
target triple = "x86_64-unknown-linux-gnu"

%"class.v8impl::RefTracker" = type { ptr, ptr, ptr }
%"class.v8impl::Finalizer" = type { ptr, ptr, ptr, ptr, ptr }

; Function Attrs: mustprogress nounwind uwtable
define linkonce_odr dso_local void @_ZN6v8impl10RefTracker6UnlinkEv(ptr noundef nonnull align 8 dereferenceable(24) %this) #4 comdat align 2 {
entry:
  %this.addr = alloca ptr, align 8
  store ptr %this, ptr %this.addr, align 8
  %this1 = load ptr, ptr %this.addr, align 8
  %prev_ = getelementptr inbounds %"class.v8impl::RefTracker", ptr %this1, i32 0, i32 2
  %0 = load ptr, ptr %prev_, align 8
  %cmp = icmp ne ptr %0, null
  br i1 %cmp, label %if.then, label %if.end

if.then:                                          ; preds = %entry
  %next_ = getelementptr inbounds %"class.v8impl::RefTracker", ptr %this1, i32 0, i32 1
  %1 = load ptr, ptr %next_, align 8
  %prev_2 = getelementptr inbounds %"class.v8impl::RefTracker", ptr %this1, i32 0, i32 2
  %2 = load ptr, ptr %prev_2, align 8
  %next_3 = getelementptr inbounds %"class.v8impl::RefTracker", ptr %2, i32 0, i32 1
  store ptr %1, ptr %next_3, align 8
  br label %if.end

if.end:                                           ; preds = %if.then, %entry
  %next_4 = getelementptr inbounds %"class.v8impl::RefTracker", ptr %this1, i32 0, i32 1
  %3 = load ptr, ptr %next_4, align 8
  %cmp5 = icmp ne ptr %3, null
  br i1 %cmp5, label %if.then6, label %if.end10

if.then6:                                         ; preds = %if.end
  %prev_7 = getelementptr inbounds %"class.v8impl::RefTracker", ptr %this1, i32 0, i32 2
  %4 = load ptr, ptr %prev_7, align 8
  %next_8 = getelementptr inbounds %"class.v8impl::RefTracker", ptr %this1, i32 0, i32 1
  %5 = load ptr, ptr %next_8, align 8
  %prev_9 = getelementptr inbounds %"class.v8impl::RefTracker", ptr %5, i32 0, i32 2
  store ptr %4, ptr %prev_9, align 8
  br label %if.end10

if.end10:                                         ; preds = %if.then6, %if.end
  %prev_11 = getelementptr inbounds %"class.v8impl::RefTracker", ptr %this1, i32 0, i32 2
  store ptr null, ptr %prev_11, align 8
  %next_12 = getelementptr inbounds %"class.v8impl::RefTracker", ptr %this1, i32 0, i32 1
  store ptr null, ptr %next_12, align 8
  ret void
}

; Function Attrs: mustprogress nounwind uwtable
define internal void @_ZN6v8impl12_GLOBAL__N_121TrackedStringResource8FinalizeEv(ptr noundef nonnull align 8 dereferenceable(64) %this) unnamed_addr #4 align 2 {
entry:
  %this.addr = alloca ptr, align 8
  store ptr %this, ptr %this.addr, align 8
  %this1 = load ptr, ptr %this.addr, align 8
  %add.ptr = getelementptr inbounds i8, ptr %this1, i64 40
  call void @_ZN6v8impl10RefTracker6UnlinkEv(ptr noundef nonnull align 8 dereferenceable(24) %add.ptr)
  %env_ = getelementptr inbounds %"class.v8impl::Finalizer", ptr %this1, i32 0, i32 1
  store ptr null, ptr %env_, align 8
  ret void
}

; Function Attrs: nounwind uwtable
define internal void @_ZThn40_N6v8impl12_GLOBAL__N_121TrackedStringResource8FinalizeEv(ptr noundef %this) unnamed_addr #0 align 2 {
entry:
  %this.addr = alloca ptr, align 8
  store ptr %this, ptr %this.addr, align 8
  %this1 = load ptr, ptr %this.addr, align 8
  %0 = getelementptr inbounds i8, ptr %this1, i64 -40
  tail call void @_ZN6v8impl12_GLOBAL__N_121TrackedStringResource8FinalizeEv(ptr noundef nonnull align 8 dereferenceable(64) %0)
  ret void
}