; Function Attrs: mustprogress nofree norecurse nosync nounwind willreturn memory(write, argmem: readwrite, inaccessiblemem: none) uwtable
define internal void @_ZThn40_N6v8impl12_GLOBAL__N_121TrackedStringResource8FinalizeEv(ptr nocapture noundef %this) unnamed_addr #5 align 2 {
entry:
  %prev_.i.i = getelementptr inbounds i8, ptr %this, i64 16
  %0 = load ptr, ptr %prev_.i.i, align 8
  %cmp.not.i.i = icmp eq ptr %0, null
  %next_4.phi.trans.insert.i.i = getelementptr inbounds i8, ptr %this, i64 8
  %.pre.i.i = load ptr, ptr %next_4.phi.trans.insert.i.i, align 8
  br i1 %cmp.not.i.i, label %if.end.i.i, label %if.then.i.i

if.then.i.i:                                      ; preds = %entry
  %next_3.i.i = getelementptr inbounds i8, ptr %0, i64 8
  store ptr %.pre.i.i, ptr %next_3.i.i, align 8
  br label %if.end.i.i

if.end.i.i:                                       ; preds = %if.then.i.i, %entry
  %cmp5.not.i.i = icmp eq ptr %.pre.i.i, null
  br i1 %cmp5.not.i.i, label %_ZN6v8impl12_GLOBAL__N_121TrackedStringResource8FinalizeEv.exit, label %if.then6.i.i

if.then6.i.i:                                     ; preds = %if.end.i.i
  %1 = load ptr, ptr %prev_.i.i, align 8
  %prev_9.i.i = getelementptr inbounds i8, ptr %.pre.i.i, i64 16
  store ptr %1, ptr %prev_9.i.i, align 8
  br label %_ZN6v8impl12_GLOBAL__N_121TrackedStringResource8FinalizeEv.exit

_ZN6v8impl12_GLOBAL__N_121TrackedStringResource8FinalizeEv.exit: ; preds = %if.end.i.i, %if.then6.i.i
  tail call void @llvm.memset.p0.i64(ptr noundef nonnull align 8 dereferenceable(16) %next_4.phi.trans.insert.i.i, i8 0, i64 16, i1 false)
  %env_.i = getelementptr inbounds i8, ptr %this, i64 -32
  store ptr null, ptr %env_.i, align 8
  ret void
}